; Function Attrs: mustprogress uwtable
define noundef zeroext i1 @_ZN6google8protobuf24SimpleDescriptorDatabase24FindFileContainingSymbolERKNSt7__cxx1112basic_stringIcSt11char_traitsIcESaIcEEEPNS0_19FileDescriptorProtoE(ptr noundef nonnull align 8 dereferenceable(104) %this, ptr noundef nonnull align 8 dereferenceable(32) %symbol_name, ptr noundef %output) unnamed_addr #6 align 2 {
entry:
  %index_ = getelementptr inbounds i8, ptr %this, i64 8
  %call = tail call noundef ptr @_ZN6google8protobuf24SimpleDescriptorDatabase15DescriptorIndexIPKNS0_19FileDescriptorProtoEE10FindSymbolERKNSt7__cxx1112basic_stringIcSt11char_traitsIcESaIcEEE(ptr noundef nonnull align 8 dereferenceable(72) %index_, ptr noundef nonnull align 8 dereferenceable(32) %symbol_name)
  %cmp.i = icmp ne ptr %call, null
  br i1 %cmp.i, label %if.end.i, label %_ZN6google8protobuf24SimpleDescriptorDatabase9MaybeCopyEPKNS0_19FileDescriptorProtoEPS2_.exit

if.end.i:                                         ; preds = %entry
  tail call void @_ZN6google8protobuf19FileDescriptorProto8CopyFromERKS1_(ptr noundef nonnull align 8 dereferenceable(224) %output, ptr noundef nonnull align 8 dereferenceable(224) %call)
  br label %_ZN6google8protobuf24SimpleDescriptorDatabase9MaybeCopyEPKNS0_19FileDescriptorProtoEPS2_.exit

_ZN6google8protobuf24SimpleDescriptorDatabase9MaybeCopyEPKNS0_19FileDescriptorProtoEPS2_.exit: ; preds = %entry, %if.end.i
  ret i1 %cmp.i
}